; Function Attrs: nounwind uwtable
define internal i32 @pg_wc_isspace(i32 noundef %0) #0 {
  %2 = load i32, ptr @pg_regex_strategy, align 4
  switch i32 %2, label %default.unreachable [
    i32 0, label %3
    i32 1, label %10
    i32 2, label %13
    i32 3, label %18
    i32 4, label %31
  ]

3:                                                ; preds = %1
  %4 = icmp ult i32 %0, 128
  br i1 %4, label %5, label %34

5:                                                ; preds = %3
  %6 = zext nneg i32 %0 to i64
  %7 = getelementptr inbounds nuw [128 x i8], ptr @pg_char_properties, i64 0, i64 %6
  %8 = load i8, ptr %7, align 1
  %.lobit9 = lshr i8 %8, 7
  %9 = zext nneg i8 %.lobit9 to i32
  br label %34

10:                                               ; preds = %1
  %11 = tail call zeroext i1 @pg_u_isspace(i32 noundef %0) #20
  %12 = zext i1 %11 to i32
  br label %34

13:                                               ; preds = %1
  %14 = load ptr, ptr @pg_regex_locale, align 8
  %15 = getelementptr inbounds nuw i8, ptr %14, i64 16
  %16 = load ptr, ptr %15, align 8
  %17 = tail call i32 @iswspace_l(i32 noundef %0, ptr noundef %16) #20
  br label %34

18:                                               ; preds = %1
  %19 = icmp ult i32 %0, 256
  br i1 %19, label %20, label %34

20:                                               ; preds = %18
  %21 = load ptr, ptr @pg_regex_locale, align 8
  %22 = getelementptr inbounds nuw i8, ptr %21, i64 16
  %23 = load ptr, ptr %22, align 8
  %24 = getelementptr inbounds nuw i8, ptr %23, i64 104
  %25 = load ptr, ptr %24, align 8
  %26 = zext nneg i32 %0 to i64
  %27 = getelementptr inbounds nuw i16, ptr %25, i64 %26
  %28 = load i16, ptr %27, align 2
  %29 = lshr i16 %28, 13
  %.lobit = and i16 %29, 1
  %30 = zext nneg i16 %.lobit to i32
  br label %34

31:                                               ; preds = %1
  %32 = tail call signext i8 @u_isspace_70(i32 noundef %0) #20
  %33 = sext i8 %32 to i32
  br label %34

default.unreachable:                              ; preds = %1
  unreachable

34:                                               ; preds = %18, %20, %3, %5, %31, %13, %10
  %.0 = phi i32 [ %33, %31 ], [ %17, %13 ], [ %12, %10 ], [ 0, %3 ], [ %9, %5 ], [ 0, %18 ], [ %30, %20 ]
  ret i32 %.0
}